; ModuleID = '40/3009.c'
source_filename = "40/3009.c"
target datalayout = "e-m:e-p270:32:32-p271:32:32-p272:64:64-i64:64-f80:128-n8:16:32:64-S128"
target triple = "x86_64-pc-linux-gnu"

@__const.main.h = private unnamed_addr constant [15 x i8] c"Invalid input\00\00", align 1
@.str = private unnamed_addr constant [20 x i8] c"%lf %lf %lf %lf %lf\00", align 1
@.str.1 = private unnamed_addr constant [3 x i8] c"%s\00", align 1
@.str.2 = private unnamed_addr constant [7 x i8] c"%6.4lf\00", align 1

; Function Attrs: noinline nounwind uwtable
define dso_local i32 @main() #0 {
  %1 = alloca i32, align 4
  %2 = alloca double, align 8
  %3 = alloca double, align 8
  %4 = alloca double, align 8
  %5 = alloca double, align 8
  %6 = alloca double, align 8
  %7 = alloca double, align 8
  %8 = alloca double, align 8
  %9 = alloca double, align 8
  %10 = alloca double, align 8
  %11 = alloca double, align 8
  %12 = alloca [15 x i8], align 1
  store i32 0, i32* %1, align 4
  %13 = bitcast [15 x i8]* %12 to i8*
  call void @llvm.memcpy.p0i8.p0i8.i64(i8* align 1 %13, i8* align 1 getelementptr inbounds ([15 x i8], [15 x i8]* @__const.main.h, i32 0, i32 0), i64 15, i1 false)
  %14 = call i32 (i8*, ...) @__isoc99_scanf(i8* getelementptr inbounds ([20 x i8], [20 x i8]* @.str, i64 0, i64 0), double* %2, double* %3, double* %4, double* %5, double* %6)
  %15 = load double, double* %2, align 8
  %16 = load double, double* %3, align 8
  %17 = fadd double %15, %16
  %18 = load double, double* %4, align 8
  %19 = fadd double %17, %18
  %20 = load double, double* %5, align 8
  %21 = fadd double %19, %20
  %22 = fdiv double %21, 2.000000e+00
  store double %22, double* %9, align 8
  %23 = load double, double* %6, align 8
  %24 = fdiv double %23, 2.000000e+00
  %25 = fdiv double %24, 1.800000e+02
  %26 = fmul double %25, 1.000000e+02
  store double %26, double* %7, align 8
  %27 = load double, double* %7, align 8
  %28 = call double @cos(double %27) #4
  %29 = load double, double* %7, align 8
  %30 = call double @cos(double %29) #4
  %31 = fmul double %28, %30
  store double %31, double* %8, align 8
  %32 = load double, double* %9, align 8
  %33 = load double, double* %2, align 8
  %34 = fsub double %32, %33
  %35 = load double, double* %9, align 8
  %36 = load double, double* %3, align 8
  %37 = fsub double %35, %36
  %38 = fmul double %34, %37
  %39 = load double, double* %9, align 8
  %40 = load double, double* %4, align 8
  %41 = fsub double %39, %40
  %42 = fmul double %38, %41
  %43 = load double, double* %9, align 8
  %44 = load double, double* %5, align 8
  %45 = fsub double %43, %44
  %46 = fmul double %42, %45
  %47 = load double, double* %2, align 8
  %48 = load double, double* %3, align 8
  %49 = fmul double %47, %48
  %50 = load double, double* %4, align 8
  %51 = fmul double %49, %50
  %52 = load double, double* %5, align 8
  %53 = fmul double %51, %52
  %54 = load double, double* %8, align 8
  %55 = fmul double %53, %54
  %56 = fsub double %46, %55
  store double %56, double* %10, align 8
  %57 = load double, double* %10, align 8
  %58 = fcmp olt double %57, 0.000000e+00
  br i1 %58, label %59, label %62

59:                                               ; preds = %0
  %60 = getelementptr inbounds [15 x i8], [15 x i8]* %12, i64 0, i64 0
  %61 = call i32 (i8*, ...) @printf(i8* getelementptr inbounds ([3 x i8], [3 x i8]* @.str.1, i64 0, i64 0), i8* %60)
  br label %91

62:                                               ; preds = %0
  %63 = load double, double* %9, align 8
  %64 = load double, double* %2, align 8
  %65 = fsub double %63, %64
  %66 = load double, double* %9, align 8
  %67 = load double, double* %3, align 8
  %68 = fsub double %66, %67
  %69 = fmul double %65, %68
  %70 = load double, double* %9, align 8
  %71 = load double, double* %4, align 8
  %72 = fsub double %70, %71
  %73 = fmul double %69, %72
  %74 = load double, double* %9, align 8
  %75 = load double, double* %5, align 8
  %76 = fsub double %74, %75
  %77 = fmul double %73, %76
  %78 = load double, double* %2, align 8
  %79 = load double, double* %3, align 8
  %80 = fmul double %78, %79
  %81 = load double, double* %4, align 8
  %82 = fmul double %80, %81
  %83 = load double, double* %5, align 8
  %84 = fmul double %82, %83
  %85 = load double, double* %8, align 8
  %86 = fmul double %84, %85
  %87 = fsub double %77, %86
  %88 = call double @sqrt(double %87) #4
  store double %88, double* %11, align 8
  %89 = load double, double* %11, align 8
  %90 = call i32 (i8*, ...) @printf(i8* getelementptr inbounds ([7 x i8], [7 x i8]* @.str.2, i64 0, i64 0), double %89)
  br label %91

91:                                               ; preds = %62, %59
  %92 = load i32, i32* %1, align 4
  ret i32 %92
}

; Function Attrs: argmemonly nounwind willreturn
declare void @llvm.memcpy.p0i8.p0i8.i64(i8* noalias nocapture writeonly, i8* noalias nocapture readonly, i64, i1 immarg) #1

declare dso_local i32 @__isoc99_scanf(i8*, ...) #2

; Function Attrs: nounwind
declare dso_local double @cos(double) #3

declare dso_local i32 @printf(i8*, ...) #2

; Function Attrs: nounwind
declare dso_local double @sqrt(double) #3


!llvm.module.flags = !{!0}
!llvm.ident = !{!1}

!0 = !{i32 1, !"wchar_size", i32 4}
!1 = !{!"clang version 10.0.0-4ubuntu1 "}
